target datalayout = "e-m:e-p270:32:32-p271:32:32-p272:64:64-i64:64-i128:128-f80:128-n8:16:32:64-S128"
target triple = "x86_64-pc-linux-gnu"

@proto_register_qnet6.ett = internal global [3 x ptr] [ptr @ett_qnet6_l4, ptr @ett_qnet6_flags, ptr @ett_qnet6_qos_info], align 16
@proto_register_qnet6.ett_nr = internal global [1 x ptr] [ptr @ett_qnet6_nr], align 8
@proto_register_qnet6.ett_qos = internal global [1 x ptr] [ptr @ett_qnet6_qos], align 8
@.str.716 = private unnamed_addr constant [24 x i8] c"QNX6 QNET LWL4 protocol\00", align 1
@.str.717 = private unnamed_addr constant [5 x i8] c"LWL4\00", align 1
@.str.718 = private unnamed_addr constant [5 x i8] c"lwl4\00", align 1
@proto_qnet6_l4 = internal global i32 0, align 4
@.str.719 = private unnamed_addr constant [23 x i8] c"QNX6 QNET QOS protocol\00", align 1
@.str.720 = private unnamed_addr constant [4 x i8] c"QOS\00", align 1
@.str.721 = private unnamed_addr constant [4 x i8] c"qos\00", align 1
@proto_qnet6_qos = internal global i32 0, align 4
@.str.722 = private unnamed_addr constant [22 x i8] c"QNX6 QNET LR protocol\00", align 1
@.str.723 = private unnamed_addr constant [3 x i8] c"LR\00", align 1
@.str.724 = private unnamed_addr constant [3 x i8] c"lr\00", align 1
@proto_qnet6_lr = internal global i32 0, align 4
@.str.725 = private unnamed_addr constant [23 x i8] c"QNX6 QNET KIF protocol\00", align 1
@.str.726 = private unnamed_addr constant [4 x i8] c"KIF\00", align 1
@.str.727 = private unnamed_addr constant [4 x i8] c"kif\00", align 1
@proto_qnet6_kif = internal global i32 0, align 4
@.str.728 = private unnamed_addr constant [36 x i8] c"QNX6 QNET Network Resolver protocol\00", align 1
@.str.729 = private unnamed_addr constant [3 x i8] c"NR\00", align 1
@.str.730 = private unnamed_addr constant [3 x i8] c"nr\00", align 1
@proto_qnet6_nr = internal global i32 0, align 4
@qnet6_handle = internal global ptr null, align 8
@.str.731 = private unnamed_addr constant [10 x i8] c"check_crc\00", align 1
@.str.732 = private unnamed_addr constant [46 x i8] c"Validate the LWL4 crc even crc bit is not set\00", align 1
@.str.733 = private unnamed_addr constant [57 x i8] c"Whether to validate the LWL4 crc when crc bit is not set\00", align 1
@qnet6_lwl4_check_crc = internal global i8 1, align 1

; Function Attrs: null_pointer_is_valid sspstrong uwtable
define hidden void @proto_register_qnet6() #0 {
  %1 = alloca ptr, align 8
  call void @llvm.lifetime.start.p0(i64 8, ptr %1) #7
  %2 = call i32 @proto_register_protocol(ptr noundef @.str.716, ptr noundef @.str.717, ptr noundef @.str.718)
  store i32 %2, ptr @proto_qnet6_l4, align 4
  %3 = call i32 @proto_register_protocol(ptr noundef @.str.719, ptr noundef @.str.720, ptr noundef @.str.721)
  store i32 %3, ptr @proto_qnet6_qos, align 4
  %4 = call i32 @proto_register_protocol(ptr noundef @.str.722, ptr noundef @.str.723, ptr noundef @.str.724)
  store i32 %4, ptr @proto_qnet6_lr, align 4
  %5 = call i32 @proto_register_protocol(ptr noundef @.str.725, ptr noundef @.str.726, ptr noundef @.str.727)
  store i32 %5, ptr @proto_qnet6_kif, align 4
  %6 = call i32 @proto_register_protocol(ptr noundef @.str.728, ptr noundef @.str.729, ptr noundef @.str.730)
  store i32 %6, ptr @proto_qnet6_nr, align 4
  %7 = load i32, ptr @proto_qnet6_l4, align 4
  %8 = call ptr @register_dissector(ptr noundef @.str.718, ptr noundef @dissect_qnet6, i32 noundef %7)
  store ptr %8, ptr @qnet6_handle, align 8
  %9 = load i32, ptr @proto_qnet6_l4, align 4
  call void @proto_register_field_array(i32 noundef %9, ptr noundef @proto_register_qnet6.hf, i32 noundef 19)
  call void @proto_register_subtree_array(ptr noundef @proto_register_qnet6.ett, i32 noundef 3)
  %10 = load i32, ptr @proto_qnet6_qos, align 4
  call void @proto_register_field_array(i32 noundef %10, ptr noundef @proto_register_qnet6.hf_qos, i32 noundef 8)
  call void @proto_register_subtree_array(ptr noundef @proto_register_qnet6.ett_qos, i32 noundef 1)
  %11 = load i32, ptr @proto_qnet6_lr, align 4
  call void @proto_register_field_array(i32 noundef %11, ptr noundef @proto_register_qnet6.hf_lr, i32 noundef 23)
  call void @proto_register_subtree_array(ptr noundef @proto_register_qnet6.ett_lr, i32 noundef 9)
  %12 = load i32, ptr @proto_qnet6_kif, align 4
  call void @proto_register_field_array(i32 noundef %12, ptr noundef @proto_register_qnet6.hf_kif, i32 noundef 248)
  call void @proto_register_subtree_array(ptr noundef @proto_register_qnet6.ett_kif, i32 noundef 23)
  %13 = load i32, ptr @proto_qnet6_nr, align 4
  call void @proto_register_field_array(i32 noundef %13, ptr noundef @proto_register_qnet6.hf_nr, i32 noundef 8)
  call void @proto_register_subtree_array(ptr noundef @proto_register_qnet6.ett_nr, i32 noundef 1)
  %14 = load i32, ptr @proto_qnet6_l4, align 4
  %15 = call ptr @prefs_register_protocol(i32 noundef %14, ptr noundef null)
  store ptr %15, ptr %1, align 8
  %16 = load ptr, ptr %1, align 8
  call void @prefs_register_bool_preference(ptr noundef %16, ptr noundef @.str.731, ptr noundef @.str.732, ptr noundef @.str.733, ptr noundef @qnet6_lwl4_check_crc)
  call void @llvm.lifetime.end.p0(i64 8, ptr %1) #7
  ret void
}