; Function Attrs: null_pointer_is_valid sspstrong uwtable
define hidden void @proto_register_qnet6() local_unnamed_addr #0 {
  %1 = tail call i32 @proto_register_protocol(ptr noundef nonnull @.str.716, ptr noundef nonnull @.str.717, ptr noundef nonnull @.str.718)
  store i32 %1, ptr @proto_qnet6_l4, align 4
  %2 = tail call i32 @proto_register_protocol(ptr noundef nonnull @.str.719, ptr noundef nonnull @.str.720, ptr noundef nonnull @.str.721)
  store i32 %2, ptr @proto_qnet6_qos, align 4
  %3 = tail call i32 @proto_register_protocol(ptr noundef nonnull @.str.722, ptr noundef nonnull @.str.723, ptr noundef nonnull @.str.724)
  store i32 %3, ptr @proto_qnet6_lr, align 4
  %4 = tail call i32 @proto_register_protocol(ptr noundef nonnull @.str.725, ptr noundef nonnull @.str.726, ptr noundef nonnull @.str.727)
  store i32 %4, ptr @proto_qnet6_kif, align 4
  %5 = tail call i32 @proto_register_protocol(ptr noundef nonnull @.str.728, ptr noundef nonnull @.str.729, ptr noundef nonnull @.str.730)
  store i32 %5, ptr @proto_qnet6_nr, align 4
  %6 = load i32, ptr @proto_qnet6_l4, align 4
  %7 = tail call ptr @register_dissector(ptr noundef nonnull @.str.718, ptr noundef nonnull @dissect_qnet6, i32 noundef %6)
  store ptr %7, ptr @qnet6_handle, align 8
  %8 = load i32, ptr @proto_qnet6_l4, align 4
  tail call void @proto_register_field_array(i32 noundef %8, ptr noundef nonnull @proto_register_qnet6.hf, i32 noundef 19)
  tail call void @proto_register_subtree_array(ptr noundef nonnull @proto_register_qnet6.ett, i32 noundef 3)
  %9 = load i32, ptr @proto_qnet6_qos, align 4
  tail call void @proto_register_field_array(i32 noundef %9, ptr noundef nonnull @proto_register_qnet6.hf_qos, i32 noundef 8)
  tail call void @proto_register_subtree_array(ptr noundef nonnull @proto_register_qnet6.ett_qos, i32 noundef 1)
  %10 = load i32, ptr @proto_qnet6_lr, align 4
  tail call void @proto_register_field_array(i32 noundef %10, ptr noundef nonnull @proto_register_qnet6.hf_lr, i32 noundef 23)
  tail call void @proto_register_subtree_array(ptr noundef nonnull @proto_register_qnet6.ett_lr, i32 noundef 9)
  %11 = load i32, ptr @proto_qnet6_kif, align 4
  tail call void @proto_register_field_array(i32 noundef %11, ptr noundef nonnull @proto_register_qnet6.hf_kif, i32 noundef 248)
  tail call void @proto_register_subtree_array(ptr noundef nonnull @proto_register_qnet6.ett_kif, i32 noundef 23)
  %12 = load i32, ptr @proto_qnet6_nr, align 4
  tail call void @proto_register_field_array(i32 noundef %12, ptr noundef nonnull @proto_register_qnet6.hf_nr, i32 noundef 8)
  tail call void @proto_register_subtree_array(ptr noundef nonnull @proto_register_qnet6.ett_nr, i32 noundef 1)
  %13 = load i32, ptr @proto_qnet6_l4, align 4
  %14 = tail call ptr @prefs_register_protocol(i32 noundef %13, ptr noundef null)
  tail call void @prefs_register_bool_preference(ptr noundef %14, ptr noundef nonnull @.str.731, ptr noundef nonnull @.str.732, ptr noundef nonnull @.str.733, ptr noundef nonnull @qnet6_lwl4_check_crc)
  ret void
}